target datalayout = "e-m:e-p270:32:32-p271:32:32-p272:64:64-i64:64-i128:128-f80:128-n8:16:32:64-S128"
target triple = "x86_64-unknown-linux-gnu"

%"class.cvc5::internal::Options" = type { %"class.std::unique_ptr.201", %"class.std::unique_ptr.209", %"class.std::unique_ptr.217", %"class.std::unique_ptr.225", %"class.std::unique_ptr.233", %"class.std::unique_ptr.241", %"class.std::unique_ptr.249", %"class.std::unique_ptr.257", %"class.std::unique_ptr.265", %"class.std::unique_ptr.273", %"class.std::unique_ptr.281", %"class.std::unique_ptr.289", %"class.std::unique_ptr.297", %"class.std::unique_ptr.305", %"class.std::unique_ptr.313", %"class.std::unique_ptr.321", %"class.std::unique_ptr.329", %"class.std::unique_ptr.337", %"class.std::unique_ptr.345", %"class.std::unique_ptr.353", %"class.std::unique_ptr.361", %"class.std::unique_ptr.369", %"class.std::unique_ptr.377", %"class.std::unique_ptr.385", ptr, ptr, ptr, ptr, ptr, ptr, ptr, ptr, ptr, ptr, ptr, ptr, ptr, ptr, ptr, ptr, ptr, ptr, ptr, ptr, ptr, ptr, ptr, ptr, %"class.std::unique_ptr.393" }
%"class.std::unique_ptr.201" = type { %"struct.std::__uniq_ptr_data.202" }
%"struct.std::__uniq_ptr_data.202" = type { %"class.std::__uniq_ptr_impl.203" }
%"class.std::__uniq_ptr_impl.203" = type { %"class.std::tuple.204" }
%"class.std::tuple.204" = type { %"struct.std::_Tuple_impl.205" }
%"struct.std::_Tuple_impl.205" = type { %"struct.std::_Head_base.208" }
%"struct.std::_Head_base.208" = type { ptr }
%"class.std::unique_ptr.209" = type { %"struct.std::__uniq_ptr_data.210" }
%"struct.std::__uniq_ptr_data.210" = type { %"class.std::__uniq_ptr_impl.211" }
%"class.std::__uniq_ptr_impl.211" = type { %"class.std::tuple.212" }
%"class.std::tuple.212" = type { %"struct.std::_Tuple_impl.213" }
%"struct.std::_Tuple_impl.213" = type { %"struct.std::_Head_base.216" }
%"struct.std::_Head_base.216" = type { ptr }
%"class.std::unique_ptr.217" = type { %"struct.std::__uniq_ptr_data.218" }
%"struct.std::__uniq_ptr_data.218" = type { %"class.std::__uniq_ptr_impl.219" }
%"class.std::__uniq_ptr_impl.219" = type { %"class.std::tuple.220" }
%"class.std::tuple.220" = type { %"struct.std::_Tuple_impl.221" }
%"struct.std::_Tuple_impl.221" = type { %"struct.std::_Head_base.224" }
%"struct.std::_Head_base.224" = type { ptr }
%"class.std::unique_ptr.225" = type { %"struct.std::__uniq_ptr_data.226" }
%"struct.std::__uniq_ptr_data.226" = type { %"class.std::__uniq_ptr_impl.227" }
%"class.std::__uniq_ptr_impl.227" = type { %"class.std::tuple.228" }
%"class.std::tuple.228" = type { %"struct.std::_Tuple_impl.229" }
%"struct.std::_Tuple_impl.229" = type { %"struct.std::_Head_base.232" }
%"struct.std::_Head_base.232" = type { ptr }
%"class.std::unique_ptr.233" = type { %"struct.std::__uniq_ptr_data.234" }
%"struct.std::__uniq_ptr_data.234" = type { %"class.std::__uniq_ptr_impl.235" }
%"class.std::__uniq_ptr_impl.235" = type { %"class.std::tuple.236" }
%"class.std::tuple.236" = type { %"struct.std::_Tuple_impl.237" }
%"struct.std::_Tuple_impl.237" = type { %"struct.std::_Head_base.240" }
%"struct.std::_Head_base.240" = type { ptr }
%"class.std::unique_ptr.241" = type { %"struct.std::__uniq_ptr_data.242" }
%"struct.std::__uniq_ptr_data.242" = type { %"class.std::__uniq_ptr_impl.243" }
%"class.std::__uniq_ptr_impl.243" = type { %"class.std::tuple.244" }
%"class.std::tuple.244" = type { %"struct.std::_Tuple_impl.245" }
%"struct.std::_Tuple_impl.245" = type { %"struct.std::_Head_base.248" }
%"struct.std::_Head_base.248" = type { ptr }
%"class.std::unique_ptr.249" = type { %"struct.std::__uniq_ptr_data.250" }
%"struct.std::__uniq_ptr_data.250" = type { %"class.std::__uniq_ptr_impl.251" }
%"class.std::__uniq_ptr_impl.251" = type { %"class.std::tuple.252" }
%"class.std::tuple.252" = type { %"struct.std::_Tuple_impl.253" }
%"struct.std::_Tuple_impl.253" = type { %"struct.std::_Head_base.256" }
%"struct.std::_Head_base.256" = type { ptr }
%"class.std::unique_ptr.257" = type { %"struct.std::__uniq_ptr_data.258" }
%"struct.std::__uniq_ptr_data.258" = type { %"class.std::__uniq_ptr_impl.259" }
%"class.std::__uniq_ptr_impl.259" = type { %"class.std::tuple.260" }
%"class.std::tuple.260" = type { %"struct.std::_Tuple_impl.261" }
%"struct.std::_Tuple_impl.261" = type { %"struct.std::_Head_base.264" }
%"struct.std::_Head_base.264" = type { ptr }
%"class.std::unique_ptr.265" = type { %"struct.std::__uniq_ptr_data.266" }
%"struct.std::__uniq_ptr_data.266" = type { %"class.std::__uniq_ptr_impl.267" }
%"class.std::__uniq_ptr_impl.267" = type { %"class.std::tuple.268" }
%"class.std::tuple.268" = type { %"struct.std::_Tuple_impl.269" }
%"struct.std::_Tuple_impl.269" = type { %"struct.std::_Head_base.272" }
%"struct.std::_Head_base.272" = type { ptr }
%"class.std::unique_ptr.273" = type { %"struct.std::__uniq_ptr_data.274" }
%"struct.std::__uniq_ptr_data.274" = type { %"class.std::__uniq_ptr_impl.275" }
%"class.std::__uniq_ptr_impl.275" = type { %"class.std::tuple.276" }
%"class.std::tuple.276" = type { %"struct.std::_Tuple_impl.277" }
%"struct.std::_Tuple_impl.277" = type { %"struct.std::_Head_base.280" }
%"struct.std::_Head_base.280" = type { ptr }
%"class.std::unique_ptr.281" = type { %"struct.std::__uniq_ptr_data.282" }
%"struct.std::__uniq_ptr_data.282" = type { %"class.std::__uniq_ptr_impl.283" }
%"class.std::__uniq_ptr_impl.283" = type { %"class.std::tuple.284" }
%"class.std::tuple.284" = type { %"struct.std::_Tuple_impl.285" }
%"struct.std::_Tuple_impl.285" = type { %"struct.std::_Head_base.288" }
%"struct.std::_Head_base.288" = type { ptr }
%"class.std::unique_ptr.289" = type { %"struct.std::__uniq_ptr_data.290" }
%"struct.std::__uniq_ptr_data.290" = type { %"class.std::__uniq_ptr_impl.291" }
%"class.std::__uniq_ptr_impl.291" = type { %"class.std::tuple.292" }
%"class.std::tuple.292" = type { %"struct.std::_Tuple_impl.293" }
%"struct.std::_Tuple_impl.293" = type { %"struct.std::_Head_base.296" }
%"struct.std::_Head_base.296" = type { ptr }
%"class.std::unique_ptr.297" = type { %"struct.std::__uniq_ptr_data.298" }
%"struct.std::__uniq_ptr_data.298" = type { %"class.std::__uniq_ptr_impl.299" }
%"class.std::__uniq_ptr_impl.299" = type { %"class.std::tuple.300" }
%"class.std::tuple.300" = type { %"struct.std::_Tuple_impl.301" }
%"struct.std::_Tuple_impl.301" = type { %"struct.std::_Head_base.304" }
%"struct.std::_Head_base.304" = type { ptr }
%"class.std::unique_ptr.305" = type { %"struct.std::__uniq_ptr_data.306" }
%"struct.std::__uniq_ptr_data.306" = type { %"class.std::__uniq_ptr_impl.307" }
%"class.std::__uniq_ptr_impl.307" = type { %"class.std::tuple.308" }
%"class.std::tuple.308" = type { %"struct.std::_Tuple_impl.309" }
%"struct.std::_Tuple_impl.309" = type { %"struct.std::_Head_base.312" }
%"struct.std::_Head_base.312" = type { ptr }
%"class.std::unique_ptr.313" = type { %"struct.std::__uniq_ptr_data.314" }
%"struct.std::__uniq_ptr_data.314" = type { %"class.std::__uniq_ptr_impl.315" }
%"class.std::__uniq_ptr_impl.315" = type { %"class.std::tuple.316" }
%"class.std::tuple.316" = type { %"struct.std::_Tuple_impl.317" }
%"struct.std::_Tuple_impl.317" = type { %"struct.std::_Head_base.320" }
%"struct.std::_Head_base.320" = type { ptr }
%"class.std::unique_ptr.321" = type { %"struct.std::__uniq_ptr_data.322" }
%"struct.std::__uniq_ptr_data.322" = type { %"class.std::__uniq_ptr_impl.323" }
%"class.std::__uniq_ptr_impl.323" = type { %"class.std::tuple.324" }
%"class.std::tuple.324" = type { %"struct.std::_Tuple_impl.325" }
%"struct.std::_Tuple_impl.325" = type { %"struct.std::_Head_base.328" }
%"struct.std::_Head_base.328" = type { ptr }
%"class.std::unique_ptr.329" = type { %"struct.std::__uniq_ptr_data.330" }
%"struct.std::__uniq_ptr_data.330" = type { %"class.std::__uniq_ptr_impl.331" }
%"class.std::__uniq_ptr_impl.331" = type { %"class.std::tuple.332" }
%"class.std::tuple.332" = type { %"struct.std::_Tuple_impl.333" }
%"struct.std::_Tuple_impl.333" = type { %"struct.std::_Head_base.336" }
%"struct.std::_Head_base.336" = type { ptr }
%"class.std::unique_ptr.337" = type { %"struct.std::__uniq_ptr_data.338" }
%"struct.std::__uniq_ptr_data.338" = type { %"class.std::__uniq_ptr_impl.339" }
%"class.std::__uniq_ptr_impl.339" = type { %"class.std::tuple.340" }
%"class.std::tuple.340" = type { %"struct.std::_Tuple_impl.341" }
%"struct.std::_Tuple_impl.341" = type { %"struct.std::_Head_base.344" }
%"struct.std::_Head_base.344" = type { ptr }
%"class.std::unique_ptr.345" = type { %"struct.std::__uniq_ptr_data.346" }
%"struct.std::__uniq_ptr_data.346" = type { %"class.std::__uniq_ptr_impl.347" }
%"class.std::__uniq_ptr_impl.347" = type { %"class.std::tuple.348" }
%"class.std::tuple.348" = type { %"struct.std::_Tuple_impl.349" }
%"struct.std::_Tuple_impl.349" = type { %"struct.std::_Head_base.352" }
%"struct.std::_Head_base.352" = type { ptr }
%"class.std::unique_ptr.353" = type { %"struct.std::__uniq_ptr_data.354" }
%"struct.std::__uniq_ptr_data.354" = type { %"class.std::__uniq_ptr_impl.355" }
%"class.std::__uniq_ptr_impl.355" = type { %"class.std::tuple.356" }
%"class.std::tuple.356" = type { %"struct.std::_Tuple_impl.357" }
%"struct.std::_Tuple_impl.357" = type { %"struct.std::_Head_base.360" }
%"struct.std::_Head_base.360" = type { ptr }
%"class.std::unique_ptr.361" = type { %"struct.std::__uniq_ptr_data.362" }
%"struct.std::__uniq_ptr_data.362" = type { %"class.std::__uniq_ptr_impl.363" }
%"class.std::__uniq_ptr_impl.363" = type { %"class.std::tuple.364" }
%"class.std::tuple.364" = type { %"struct.std::_Tuple_impl.365" }
%"struct.std::_Tuple_impl.365" = type { %"struct.std::_Head_base.368" }
%"struct.std::_Head_base.368" = type { ptr }
%"class.std::unique_ptr.369" = type { %"struct.std::__uniq_ptr_data.370" }
%"struct.std::__uniq_ptr_data.370" = type { %"class.std::__uniq_ptr_impl.371" }
%"class.std::__uniq_ptr_impl.371" = type { %"class.std::tuple.372" }
%"class.std::tuple.372" = type { %"struct.std::_Tuple_impl.373" }
%"struct.std::_Tuple_impl.373" = type { %"struct.std::_Head_base.376" }
%"struct.std::_Head_base.376" = type { ptr }
%"class.std::unique_ptr.377" = type { %"struct.std::__uniq_ptr_data.378" }
%"struct.std::__uniq_ptr_data.378" = type { %"class.std::__uniq_ptr_impl.379" }
%"class.std::__uniq_ptr_impl.379" = type { %"class.std::tuple.380" }
%"class.std::tuple.380" = type { %"struct.std::_Tuple_impl.381" }
%"struct.std::_Tuple_impl.381" = type { %"struct.std::_Head_base.384" }
%"struct.std::_Head_base.384" = type { ptr }
%"class.std::unique_ptr.385" = type { %"struct.std::__uniq_ptr_data.386" }
%"struct.std::__uniq_ptr_data.386" = type { %"class.std::__uniq_ptr_impl.387" }
%"class.std::__uniq_ptr_impl.387" = type { %"class.std::tuple.388" }
%"class.std::tuple.388" = type { %"struct.std::_Tuple_impl.389" }
%"struct.std::_Tuple_impl.389" = type { %"struct.std::_Head_base.392" }
%"struct.std::_Head_base.392" = type { ptr }
%"class.std::unique_ptr.393" = type { %"struct.std::__uniq_ptr_data.394" }
%"struct.std::__uniq_ptr_data.394" = type { %"class.std::__uniq_ptr_impl.395" }
%"class.std::__uniq_ptr_impl.395" = type { %"class.std::tuple.396" }
%"class.std::tuple.396" = type { %"struct.std::_Tuple_impl.397" }
%"struct.std::_Tuple_impl.397" = type { %"struct.std::_Head_base.400" }
%"struct.std::_Head_base.400" = type { ptr }
%"struct.cvc5::internal::options::HolderARITH" = type <{ i64, i8, i8, i8, i8, i8, i8, i8, i8, i32, i8, [3 x i8], i64, i8, i8, i8, i8, i8, i8, i8, i8, i8, i8, i8, i8, i8, [3 x i8], i64, i8, [3 x i8], i32, i8, i8, i8, [5 x i8], i64, i8, i8, i8, [5 x i8], i64, i8, i8, i8, [5 x i8], i64, i8, i8, i8, i8, i8, i8, i8, i8, i32, i8, [3 x i8], i32, i8, [3 x i8], i32, i8, i8, i8, i8, i8, [3 x i8], i32, i8, i8, i8, i8, i8, i8, i8, i8, i8, i8, i8, i8, i8, i8, i8, i8, i64, i8, i8, i8, i8, i8, i8, i8, i8, i8, [3 x i8], i32, i8, i8, i8, i8, i8, [3 x i8], i64, i8, [7 x i8], i64, i8, [7 x i8], i64, i8, [7 x i8], i64, i8, [7 x i8], i64, i8, [7 x i8], i64, i8, [7 x i8], i64, i8, i8, i8, i8, i8, [3 x i8], i64, i8, i8, i8, [5 x i8], i64, i8, i8, i8, [5 x i8], i64, i8, [3 x i8], i32, i8, i8, i8, i8, i8, i8, i8, i8 }>

; Function Attrs: mustprogress nounwind uwtable
define hidden noundef zeroext i1 @_ZN4cvc58internal6theory22EqEngineManagerCentral25usesCentralEqualityEngineERKNS0_7OptionsENS1_8TheoryIdE(ptr noundef nonnull align 8 dereferenceable(392) %opts, i32 noundef %id) #4 align 2 {
entry:
  %retval = alloca i1, align 1
  %opts.addr = alloca ptr, align 8
  %id.addr = alloca i32, align 4
  store ptr %opts, ptr %opts.addr, align 8
  store i32 %id, ptr %id.addr, align 4
  %0 = load i32, ptr %id.addr, align 4
  %cmp = icmp eq i32 %0, 0
  br i1 %cmp, label %if.then, label %if.end

if.then:                                          ; preds = %entry
  store i1 true, ptr %retval, align 1
  br label %return

if.end:                                           ; preds = %entry
  %1 = load i32, ptr %id.addr, align 4
  %cmp1 = icmp eq i32 %1, 3
  br i1 %cmp1, label %if.then2, label %if.end3

if.then2:                                         ; preds = %if.end
  %2 = load ptr, ptr %opts.addr, align 8
  %arith = getelementptr inbounds %"class.cvc5::internal::Options", ptr %2, i32 0, i32 24
  %3 = load ptr, ptr %arith, align 8
  %arithEqSolver = getelementptr inbounds %"struct.cvc5::internal::options::HolderARITH", ptr %3, i32 0, i32 4
  %4 = load i8, ptr %arithEqSolver, align 1
  %tobool = trunc i8 %4 to i1
  store i1 %tobool, ptr %retval, align 1
  br label %return

if.end3:                                          ; preds = %if.end
  %5 = load i32, ptr %id.addr, align 4
  %cmp4 = icmp eq i32 %5, 2
  br i1 %cmp4, label %lor.end, label %lor.lhs.false

lor.lhs.false:                                    ; preds = %if.end3
  %6 = load i32, ptr %id.addr, align 4
  %cmp5 = icmp eq i32 %6, 8
  br i1 %cmp5, label %lor.end, label %lor.lhs.false6

lor.lhs.false6:                                   ; preds = %lor.lhs.false
  %7 = load i32, ptr %id.addr, align 4
  %cmp7 = icmp eq i32 %7, 11
  br i1 %cmp7, label %lor.end, label %lor.lhs.false8

lor.lhs.false8:                                   ; preds = %lor.lhs.false6
  %8 = load i32, ptr %id.addr, align 4
  %cmp9 = icmp eq i32 %8, 6
  br i1 %cmp9, label %lor.end, label %lor.lhs.false10

lor.lhs.false10:                                  ; preds = %lor.lhs.false8
  %9 = load i32, ptr %id.addr, align 4
  %cmp11 = icmp eq i32 %9, 10
  br i1 %cmp11, label %lor.end, label %lor.lhs.false12

lor.lhs.false12:                                  ; preds = %lor.lhs.false10
  %10 = load i32, ptr %id.addr, align 4
  %cmp13 = icmp eq i32 %10, 12
  br i1 %cmp13, label %lor.end, label %lor.lhs.false14

lor.lhs.false14:                                  ; preds = %lor.lhs.false12
  %11 = load i32, ptr %id.addr, align 4
  %cmp15 = icmp eq i32 %11, 9
  br i1 %cmp15, label %lor.end, label %lor.lhs.false16

lor.lhs.false16:                                  ; preds = %lor.lhs.false14
  %12 = load i32, ptr %id.addr, align 4
  %cmp17 = icmp eq i32 %12, 7
  br i1 %cmp17, label %lor.end, label %lor.rhs

lor.rhs:                                          ; preds = %lor.lhs.false16
  %13 = load i32, ptr %id.addr, align 4
  %cmp18 = icmp eq i32 %13, 4
  br label %lor.end

lor.end:                                          ; preds = %lor.rhs, %lor.lhs.false16, %lor.lhs.false14, %lor.lhs.false12, %lor.lhs.false10, %lor.lhs.false8, %lor.lhs.false6, %lor.lhs.false, %if.end3
  %14 = phi i1 [ true, %lor.lhs.false16 ], [ true, %lor.lhs.false14 ], [ true, %lor.lhs.false12 ], [ true, %lor.lhs.false10 ], [ true, %lor.lhs.false8 ], [ true, %lor.lhs.false6 ], [ true, %lor.lhs.false ], [ true, %if.end3 ], [ %cmp18, %lor.rhs ]
  store i1 %14, ptr %retval, align 1
  br label %return

return:                                           ; preds = %lor.end, %if.then2, %if.then
  %15 = load i1, ptr %retval, align 1
  ret i1 %15
}