; Function Attrs: mustprogress nofree norecurse nosync nounwind willreturn memory(read, inaccessiblemem: none) uwtable
define hidden noundef zeroext i1 @_ZN4cvc58internal6theory22EqEngineManagerCentral25usesCentralEqualityEngineERKNS0_7OptionsENS1_8TheoryIdE(ptr nocapture noundef nonnull readonly align 8 dereferenceable(392) %opts, i32 noundef %id) local_unnamed_addr #7 align 2 {
entry:
  switch i32 %id, label %lor.rhs [
    i32 0, label %return
    i32 3, label %if.then2
    i32 12, label %return
    i32 11, label %return
    i32 10, label %return
    i32 9, label %return
    i32 8, label %return
    i32 7, label %return
    i32 6, label %return
    i32 2, label %return
    i32 4, label %return
  ]

if.then2:                                         ; preds = %entry
  %arith = getelementptr inbounds i8, ptr %opts, i64 192
  %0 = load ptr, ptr %arith, align 8
  %arithEqSolver = getelementptr inbounds i8, ptr %0, i64 11
  %1 = load i8, ptr %arithEqSolver, align 1
  %2 = and i8 %1, 1
  %tobool = icmp ne i8 %2, 0
  br label %return

lor.rhs:                                          ; preds = %entry
  br label %return

return:                                           ; preds = %entry, %entry, %entry, %entry, %entry, %entry, %entry, %entry, %entry, %entry, %lor.rhs, %if.then2
  %retval.0 = phi i1 [ %tobool, %if.then2 ], [ true, %entry ], [ false, %lor.rhs ], [ true, %entry ], [ true, %entry ], [ true, %entry ], [ true, %entry ], [ true, %entry ], [ true, %entry ], [ true, %entry ], [ true, %entry ], [ true, %entry ]
  ret i1 %retval.0
}